; Function Attrs: mustprogress uwtable
define hidden void @_ZNK7datalog23finite_product_relation7displayERSo(ptr noundef nonnull align 8 dereferenceable(160) %this, ptr noundef nonnull align 8 dereferenceable(8) %out) unnamed_addr #3 align 2 {
entry:
  tail call void @_ZNK7datalog23finite_product_relation15garbage_collectEb(ptr noundef nonnull align 8 dereferenceable(160) %this, i1 noundef zeroext true)
  %call = tail call noundef nonnull align 8 dereferenceable(8) ptr @_ZStlsISt11char_traitsIcEERSt13basic_ostreamIcT_ES5_PKc(ptr noundef nonnull align 8 dereferenceable(8) %out, ptr noundef nonnull @.str.4)
  %call2 = tail call noundef nonnull align 8 dereferenceable(8) ptr @_ZStlsISt11char_traitsIcEERSt13basic_ostreamIcT_ES5_PKc(ptr noundef nonnull align 8 dereferenceable(8) %out, ptr noundef nonnull @.str.5)
  %m_table.i = getelementptr inbounds i8, ptr %this, i64 104
  %0 = load ptr, ptr %m_table.i, align 8
  %vtable = load ptr, ptr %0, align 8
  %vfn = getelementptr inbounds i8, ptr %vtable, i64 120
  %1 = load ptr, ptr %vfn, align 8
  tail call void %1(ptr noundef nonnull align 8 dereferenceable(36) %0, ptr noundef nonnull align 8 dereferenceable(8) %out)
  %m_others = getelementptr inbounds i8, ptr %this, i64 112
  %2 = load ptr, ptr %m_others, align 8
  %cmp.i = icmp eq ptr %2, null
  br i1 %cmp.i, label %for.end, label %_ZNK6vectorIPN7datalog13relation_baseELb0EjE4sizeEv.exit

_ZNK6vectorIPN7datalog13relation_baseELb0EjE4sizeEv.exit: ; preds = %entry
  %arrayidx.i = getelementptr inbounds i8, ptr %2, i64 -4
  %3 = load i32, ptr %arrayidx.i, align 4
  %cmp10.not = icmp eq i32 %3, 0
  br i1 %cmp10.not, label %for.end, label %for.body.preheader

for.body.preheader:                               ; preds = %_ZNK6vectorIPN7datalog13relation_baseELb0EjE4sizeEv.exit
  %wide.trip.count = zext i32 %3 to i64
  br label %for.body

for.body:                                         ; preds = %for.body.preheader, %for.inc
  %indvars.iv = phi i64 [ 0, %for.body.preheader ], [ %indvars.iv.next, %for.inc ]
  %4 = load ptr, ptr %m_others, align 8
  %arrayidx.i9 = getelementptr inbounds ptr, ptr %4, i64 %indvars.iv
  %5 = load ptr, ptr %arrayidx.i9, align 8
  %cmp7 = icmp eq ptr %5, null
  br i1 %cmp7, label %for.inc, label %if.end

if.end:                                           ; preds = %for.body
  %call8 = tail call noundef nonnull align 8 dereferenceable(8) ptr @_ZStlsISt11char_traitsIcEERSt13basic_ostreamIcT_ES5_PKc(ptr noundef nonnull align 8 dereferenceable(8) %out, ptr noundef nonnull @.str.6)
  %6 = trunc i64 %indvars.iv to i32
  %call9 = tail call noundef nonnull align 8 dereferenceable(8) ptr @_ZNSolsEj(ptr noundef nonnull align 8 dereferenceable(8) %call8, i32 noundef %6)
  %call10 = tail call noundef nonnull align 8 dereferenceable(8) ptr @_ZStlsISt11char_traitsIcEERSt13basic_ostreamIcT_ES5_PKc(ptr noundef nonnull align 8 dereferenceable(8) %call9, ptr noundef nonnull @.str.7)
  %7 = load ptr, ptr %m_others, align 8
  %arrayidx.i.i.i = getelementptr inbounds ptr, ptr %7, i64 %indvars.iv
  %8 = load ptr, ptr %arrayidx.i.i.i, align 8
  %vtable12 = load ptr, ptr %8, align 8
  %vfn13 = getelementptr inbounds i8, ptr %vtable12, i64 120
  %9 = load ptr, ptr %vfn13, align 8
  tail call void %9(ptr noundef nonnull align 8 dereferenceable(28) %8, ptr noundef nonnull align 8 dereferenceable(8) %out)
  br label %for.inc

for.inc:                                          ; preds = %for.body, %if.end
  %indvars.iv.next = add nuw nsw i64 %indvars.iv, 1
  %exitcond.not = icmp eq i64 %indvars.iv.next, %wide.trip.count
  br i1 %exitcond.not, label %for.end, label %for.body, !llvm.loop !52

for.end:                                          ; preds = %for.inc, %entry, %_ZNK6vectorIPN7datalog13relation_baseELb0EjE4sizeEv.exit
  ret void
}